; Function Attrs: mustprogress nofree nounwind willreturn memory(write, argmem: readwrite) uwtable
define noundef double @_ZNK8QuantLib23HullWhiteForwardProcess3M_TEddd(ptr nocapture noundef nonnull readonly align 8 dereferenceable(200) %this, double noundef %s, double noundef %t, double noundef %T) local_unnamed_addr #15 align 2 {
entry:
  %a_ = getelementptr inbounds nuw i8, ptr %this, i64 184
  %0 = load double, ptr %a_, align 8, !tbaa !74
  %cmp = fcmp ogt double %0, 0x3CB0000000000000
  %sigma_ = getelementptr inbounds nuw i8, ptr %this, i64 192
  %1 = load double, ptr %sigma_, align 8, !tbaa !77
  %mul = fmul double %1, %1
  br i1 %cmp, label %if.then, label %if.else

if.then:                                          ; preds = %entry
  %mul5 = fmul double %0, %0
  %div = fdiv double %mul, %mul5
  %fneg = fneg double %0
  %sub = fsub double %t, %s
  %mul7 = fmul double %sub, %fneg
  %call8 = tail call double @exp(double noundef %mul7) #25, !tbaa !73
  %sub11 = fsub double %T, %t
  %mul12 = fmul double %sub11, %fneg
  %call13 = tail call double @exp(double noundef %mul12) #25, !tbaa !73
  %add = fadd double %t, %T
  %2 = tail call double @llvm.fmuladd.f64(double %s, double -2.000000e+00, double %add)
  %mul17 = fmul double %2, %fneg
  %call18 = tail call double @exp(double noundef %mul17) #25, !tbaa !73
  %sub19 = fsub double 1.000000e+00, %call8
  %mul21 = fmul double %div, 5.000000e-01
  %sub22 = fsub double %call13, %call18
  %3 = fneg double %sub22
  %neg = fmul double %mul21, %3
  %4 = tail call double @llvm.fmuladd.f64(double %div, double %sub19, double %neg)
  br label %return

if.else:                                          ; preds = %entry
  %div28 = fmul double %mul, 5.000000e-01
  %sub29 = fsub double %t, %s
  %mul30 = fmul double %sub29, %div28
  %neg32 = fneg double %t
  %5 = tail call double @llvm.fmuladd.f64(double %T, double 2.000000e+00, double %neg32)
  %sub33 = fsub double %5, %s
  %mul34 = fmul double %sub33, %mul30
  br label %return

return:                                           ; preds = %if.else, %if.then
  %retval.0 = phi double [ %4, %if.then ], [ %mul34, %if.else ]
  ret double %retval.0
}